target datalayout = "e-m:e-p270:32:32-p271:32:32-p272:64:64-i64:64-i128:128-f80:128-n8:16:32:64-S128"
target triple = "x86_64-pc-linux-gnu"

; Function Attrs: nounwind uwtable
define i32 @Java_com_sun_media_sound_PortMixer_nGetPortType(ptr noundef %0, ptr noundef %1, i64 noundef %2, i32 noundef %3) #0 {
  %5 = alloca ptr, align 8
  %6 = alloca ptr, align 8
  %7 = alloca i64, align 8
  %8 = alloca i32, align 4
  %9 = alloca i32, align 4
  store ptr %0, ptr %5, align 8
  store ptr %1, ptr %6, align 8
  store i64 %2, ptr %7, align 8
  store i32 %3, ptr %8, align 4
  store i32 0, ptr %9, align 4
  %10 = load i64, ptr %7, align 8
  %11 = icmp ne i64 %10, 0
  br i1 %11, label %12, label %17

12:                                               ; preds = %4
  %13 = load i64, ptr %7, align 8
  %14 = inttoptr i64 %13 to ptr
  %15 = load i32, ptr %8, align 4
  %16 = call i32 @PORT_GetPortType(ptr noundef %14, i32 noundef %15)
  store i32 %16, ptr %9, align 4
  br label %17

17:                                               ; preds = %12, %4
  %18 = load i32, ptr %9, align 4
  ret i32 %18
}