; Function Attrs: nounwind uwtable
define i32 @Java_com_sun_media_sound_PortMixer_nGetPortType(ptr nocapture noundef readnone %0, ptr nocapture noundef readnone %1, i64 noundef %2, i32 noundef %3) local_unnamed_addr #0 {
  %.not = icmp eq i64 %2, 0
  br i1 %.not, label %8, label %5

5:                                                ; preds = %4
  %6 = inttoptr i64 %2 to ptr
  %7 = tail call i32 @PORT_GetPortType(ptr noundef nonnull %6, i32 noundef %3) #3
  br label %8

8:                                                ; preds = %5, %4
  %.0 = phi i32 [ %7, %5 ], [ 0, %4 ]
  ret i32 %.0
}